target datalayout = "e-m:e-p270:32:32-p271:32:32-p272:64:64-i64:64-i128:128-f80:128-n8:16:32:64-S128"
target triple = "x86_64-pc-linux-gnu"

%"class.bParse::b3BulletFile" = type { %"class.bParse::bFile.base", ptr, %class.b3AlignedObjectArray.0, %class.b3AlignedObjectArray.0, %class.b3AlignedObjectArray.0, %class.b3AlignedObjectArray.0, %class.b3AlignedObjectArray.0, %class.b3AlignedObjectArray.0, %class.b3AlignedObjectArray.0, %class.b3AlignedObjectArray.0, %class.b3AlignedObjectArray.4 }
%"class.bParse::bFile.base" = type <{ ptr, [7 x i8], i8, ptr, i32, i32, %class.b3HashMap, i32, [4 x i8], ptr, ptr, %class.b3AlignedObjectArray.4, %class.b3AlignedObjectArray.4, %class.b3AlignedObjectArray.6, %class.b3HashMap.8, %class.b3HashMap, i32 }>
%class.b3AlignedObjectArray.6 = type <{ [4 x i8], i32, i32, [4 x i8], ptr, i8, [7 x i8] }>
%class.b3HashMap.8 = type { %class.b3AlignedObjectArray, %class.b3AlignedObjectArray, %class.b3AlignedObjectArray.6, %class.b3AlignedObjectArray.2 }
%class.b3AlignedObjectArray = type <{ [4 x i8], i32, i32, [4 x i8], ptr, i8, [7 x i8] }>
%class.b3AlignedObjectArray.2 = type <{ [4 x i8], i32, i32, [4 x i8], ptr, i8, [7 x i8] }>
%class.b3HashMap = type { %class.b3AlignedObjectArray, %class.b3AlignedObjectArray, %class.b3AlignedObjectArray.0, %class.b3AlignedObjectArray.2 }
%class.b3AlignedObjectArray.0 = type <{ [4 x i8], i32, i32, [4 x i8], ptr, i8, [7 x i8] }>
%class.b3AlignedObjectArray.4 = type <{ [4 x i8], i32, i32, [4 x i8], ptr, i8, [7 x i8] }>
%"class.bParse::bFile" = type <{ ptr, [7 x i8], i8, ptr, i32, i32, %class.b3HashMap, i32, [4 x i8], ptr, ptr, %class.b3AlignedObjectArray.4, %class.b3AlignedObjectArray.4, %class.b3AlignedObjectArray.6, %class.b3HashMap.8, %class.b3HashMap, i32, [4 x i8] }>

@b3s_bulletDNAlen64 = external global i32, align 4
@b3s_bulletDNAstr64 = external global [0 x i8], align 1

; Function Attrs: mustprogress uwtable
define dso_local void @_ZN6bParse12b3BulletFile5parseEi(ptr noundef nonnull align 8 dereferenceable(840) %0, i32 noundef %1) unnamed_addr #0 align 2 {
  %3 = alloca ptr, align 8
  %4 = alloca i32, align 4
  %5 = alloca i32, align 4
  store ptr %0, ptr %3, align 8, !tbaa !4
  store i32 %1, ptr %4, align 4, !tbaa !36
  %6 = load ptr, ptr %3, align 8
  %7 = getelementptr inbounds nuw %"class.bParse::b3BulletFile", ptr %6, i32 0, i32 1
  %8 = load ptr, ptr %7, align 8, !tbaa !34
  %9 = icmp ne ptr %8, null
  br i1 %9, label %10, label %16

10:                                               ; preds = %2
  %11 = getelementptr inbounds nuw %"class.bParse::b3BulletFile", ptr %6, i32 0, i32 1
  %12 = load ptr, ptr %11, align 8, !tbaa !34
  %13 = icmp eq ptr %12, null
  br i1 %13, label %15, label %14

14:                                               ; preds = %10
  call void @_ZdlPvm(ptr noundef %12, i64 noundef 1) #12
  br label %15

15:                                               ; preds = %14, %10
  br label %16

16:                                               ; preds = %15, %2
  %17 = load i32, ptr @b3s_bulletDNAlen64, align 4, !tbaa !36
  %18 = sext i32 %17 to i64
  %19 = call noundef ptr @_Z22b3AlignedAllocInternalmi(i64 noundef %18, i32 noundef 16)
  %20 = getelementptr inbounds nuw %"class.bParse::b3BulletFile", ptr %6, i32 0, i32 1
  store ptr %19, ptr %20, align 8, !tbaa !34
  %21 = getelementptr inbounds nuw %"class.bParse::b3BulletFile", ptr %6, i32 0, i32 1
  %22 = load ptr, ptr %21, align 8, !tbaa !34
  %23 = load i32, ptr @b3s_bulletDNAlen64, align 4, !tbaa !36
  %24 = sext i32 %23 to i64
  call void @llvm.memcpy.p0.p0.i64(ptr align 1 %22, ptr align 1 @b3s_bulletDNAstr64, i64 %24, i1 false)
  %25 = load i32, ptr %4, align 4, !tbaa !36
  %26 = getelementptr inbounds nuw %"class.bParse::b3BulletFile", ptr %6, i32 0, i32 1
  %27 = load ptr, ptr %26, align 8, !tbaa !34
  %28 = load i32, ptr @b3s_bulletDNAlen64, align 4, !tbaa !36
  call void @_ZN6bParse5bFile13parseInternalEiPci(ptr noundef nonnull align 8 dereferenceable(540) %6, i32 noundef %25, ptr noundef %27, i32 noundef %28)
  %29 = getelementptr inbounds nuw %"class.bParse::bFile", ptr %6, i32 0, i32 16
  %30 = load i32, ptr %29, align 8, !tbaa !46
  %31 = and i32 %30, -5
  store i32 %31, ptr %29, align 8, !tbaa !46
  call void @llvm.lifetime.start.p0(i64 4, ptr %5) #13
  store i32 1, ptr %5, align 4, !tbaa !36
  %32 = getelementptr inbounds i8, ptr %5, i64 0
  %33 = load i8, ptr %32, align 4, !tbaa !65
  %34 = sext i8 %33 to i32
  store i32 %34, ptr %5, align 4, !tbaa !36
  %35 = load i32, ptr %5, align 4, !tbaa !36
  %36 = icmp ne i32 %35, 0
  %37 = select i1 %36, i8 118, i8 86
  %38 = getelementptr inbounds nuw %"class.bParse::bFile", ptr %6, i32 0, i32 3
  %39 = load ptr, ptr %38, align 8, !tbaa !49
  %40 = getelementptr inbounds i8, ptr %39, i64 8
  store i8 %37, ptr %40, align 1, !tbaa !65
  call void @llvm.lifetime.end.p0(i64 4, ptr %5) #13
  ret void
}