; Function Attrs: mustprogress uwtable
define dso_local void @_ZN6bParse12b3BulletFile5parseEi(ptr noundef nonnull align 8 dereferenceable(840) %0, i32 noundef %1) unnamed_addr #0 align 2 {
  %3 = getelementptr inbounds nuw i8, ptr %0, i64 544
  %4 = load ptr, ptr %3, align 8, !tbaa !40
  %.not = icmp eq ptr %4, null
  br i1 %.not, label %6, label %5

5:                                                ; preds = %2
  tail call void @_ZdlPvm(ptr noundef nonnull %4, i64 noundef 1) #16
  br label %6

6:                                                ; preds = %5, %2
  %7 = load i32, ptr @b3s_bulletDNAlen64, align 4, !tbaa !42
  %8 = sext i32 %7 to i64
  %9 = tail call noundef ptr @_Z22b3AlignedAllocInternalmi(i64 noundef %8, i32 noundef 16)
  store ptr %9, ptr %3, align 8, !tbaa !40
  %10 = load i32, ptr @b3s_bulletDNAlen64, align 4, !tbaa !42
  %11 = sext i32 %10 to i64
  tail call void @llvm.memcpy.p0.p0.i64(ptr align 1 %9, ptr nonnull align 1 @b3s_bulletDNAstr64, i64 %11, i1 false)
  %12 = load ptr, ptr %3, align 8, !tbaa !40
  %13 = load i32, ptr @b3s_bulletDNAlen64, align 4, !tbaa !42
  tail call void @_ZN6bParse5bFile13parseInternalEiPci(ptr noundef nonnull align 8 dereferenceable(540) %0, i32 noundef %1, ptr noundef %12, i32 noundef %13)
  %14 = getelementptr inbounds nuw i8, ptr %0, i64 536
  %15 = load i32, ptr %14, align 8, !tbaa !48
  %16 = and i32 %15, -5
  store i32 %16, ptr %14, align 8, !tbaa !48
  %17 = getelementptr inbounds nuw i8, ptr %0, i64 16
  %18 = load ptr, ptr %17, align 8, !tbaa !50
  %19 = getelementptr inbounds nuw i8, ptr %18, i64 8
  store i8 118, ptr %19, align 1, !tbaa !55
  ret void
}